; Function Attrs: mustprogress nounwind uwtable
define internal fastcc void @_ZL15printMemOperandRN4llvm11raw_ostreamERKNS_17MachineMemOperandEPKNS_15MachineFunctionEPKNS_6ModuleEPKNS_16MachineFrameInfoEPKNS_15TargetInstrInfoERNS_11LLVMContextE(ptr noundef nonnull align 8 dereferenceable(48) %0, ptr noundef nonnull align 8 dereferenceable(80) %1, ptr noundef readonly %2, ptr noundef %3, ptr noundef %4, ptr noundef %5, ptr noundef nonnull align 8 dereferenceable(8) %6) unnamed_addr #0 {
  %8 = alloca %"class.llvm::ModuleSlotTracker", align 8
  %9 = alloca %"class.llvm::SmallVector.330", align 8
  call void @_ZN4llvm17ModuleSlotTrackerC1EPKNS_6ModuleEb(ptr noundef nonnull align 8 dereferenceable(112) %8, ptr noundef %3, i1 noundef zeroext true) #17
  %.not = icmp eq ptr %2, null
  br i1 %.not, label %12, label %10

10:                                               ; preds = %7
  %11 = load ptr, ptr %2, align 8
  call void @_ZN4llvm17ModuleSlotTracker19incorporateFunctionERKNS_8FunctionE(ptr noundef nonnull align 8 dereferenceable(112) %8, ptr noundef nonnull align 8 dereferenceable(136) %11) #17
  br label %12

12:                                               ; preds = %10, %7
  %13 = getelementptr inbounds i8, ptr %9, i64 16
  call void @_ZN4llvm15SmallVectorBaseIjEC2EPvm(ptr noundef nonnull align 8 dereferenceable(16) %9, ptr noundef nonnull %13, i64 noundef 0) #17
  call void @_ZNK4llvm17MachineMemOperand5printERNS_11raw_ostreamERNS_17ModuleSlotTrackerERNS_15SmallVectorImplINS_9StringRefEEERKNS_11LLVMContextEPKNS_16MachineFrameInfoEPKNS_15TargetInstrInfoE(ptr noundef nonnull align 8 dereferenceable(80) %1, ptr noundef nonnull align 8 dereferenceable(48) %0, ptr noundef nonnull align 8 dereferenceable(112) %8, ptr noundef nonnull align 8 dereferenceable(16) %9, ptr noundef nonnull align 8 dereferenceable(8) %6, ptr noundef %4, ptr noundef %5) #17
  %14 = call noundef i64 @_ZNK4llvm15SmallVectorBaseIjE4sizeEv(ptr noundef nonnull align 8 dereferenceable(16) %9) #17
  %15 = load ptr, ptr %9, align 8
  %16 = icmp eq ptr %15, %13
  br i1 %16, label %_ZN4llvm11SmallVectorINS_9StringRefELj0EED2Ev.exit, label %17

17:                                               ; preds = %12
  call void @free(ptr noundef %15) #17
  br label %_ZN4llvm11SmallVectorINS_9StringRefELj0EED2Ev.exit

_ZN4llvm11SmallVectorINS_9StringRefELj0EED2Ev.exit: ; preds = %12, %17
  call void @_ZN4llvm17ModuleSlotTrackerD1Ev(ptr noundef nonnull align 8 dereferenceable(112) %8) #17
  ret void
}